target datalayout = "e-m:e-p270:32:32-p271:32:32-p272:64:64-i64:64-f80:128-n8:16:32:64-S128"
target triple = "x86_64-pc-linux-gnu"

%struct.student = type { i32, i32, i32 }

@.str = private unnamed_addr constant [3 x i8] c"%d\00", align 1
@.str.1 = private unnamed_addr constant [7 x i8] c"%d%d%d\00", align 1
@.str.2 = private unnamed_addr constant [7 x i8] c"%d %d\0A\00", align 1

; Function Attrs: noinline nounwind uwtable
define dso_local i32 @main() #0 {
  %1 = alloca i32, align 4
  %2 = alloca [100000 x %struct.student], align 16
  %3 = alloca [2 x %struct.student], align 16
  %4 = alloca i32, align 4
  %5 = alloca i32, align 4
  %6 = alloca i32, align 4
  %7 = alloca i32, align 4
  %8 = alloca [100000 x i32], align 16
  %9 = alloca i32, align 4
  store i32 0, i32* %1, align 4
  %10 = bitcast [2 x %struct.student]* %3 to i8*
  call void @llvm.memset.p0i8.i64(i8* align 16 %10, i8 0, i64 24, i1 false)
  store i32 0, i32* %9, align 4
  %11 = call i32 (i8*, ...) @__isoc99_scanf(i8* getelementptr inbounds ([3 x i8], [3 x i8]* @.str, i64 0, i64 0), i32* %4)
  store i32 0, i32* %5, align 4
  br label %12

12:                                               ; preds = %44, %0
  %13 = load i32, i32* %5, align 4
  %14 = load i32, i32* %4, align 4
  %15 = icmp slt i32 %13, %14
  br i1 %15, label %16, label %47

16:                                               ; preds = %12
  %17 = load i32, i32* %5, align 4
  %18 = sext i32 %17 to i64
  %19 = getelementptr inbounds [100000 x %struct.student], [100000 x %struct.student]* %2, i64 0, i64 %18
  %20 = getelementptr inbounds %struct.student, %struct.student* %19, i32 0, i32 0
  %21 = load i32, i32* %5, align 4
  %22 = sext i32 %21 to i64
  %23 = getelementptr inbounds [100000 x %struct.student], [100000 x %struct.student]* %2, i64 0, i64 %22
  %24 = getelementptr inbounds %struct.student, %struct.student* %23, i32 0, i32 1
  %25 = load i32, i32* %5, align 4
  %26 = sext i32 %25 to i64
  %27 = getelementptr inbounds [100000 x %struct.student], [100000 x %struct.student]* %2, i64 0, i64 %26
  %28 = getelementptr inbounds %struct.student, %struct.student* %27, i32 0, i32 2
  %29 = call i32 (i8*, ...) @__isoc99_scanf(i8* getelementptr inbounds ([7 x i8], [7 x i8]* @.str.1, i64 0, i64 0), i32* %20, i32* %24, i32* %28)
  %30 = load i32, i32* %5, align 4
  %31 = sext i32 %30 to i64
  %32 = getelementptr inbounds [100000 x %struct.student], [100000 x %struct.student]* %2, i64 0, i64 %31
  %33 = getelementptr inbounds %struct.student, %struct.student* %32, i32 0, i32 1
  %34 = load i32, i32* %33, align 4
  %35 = load i32, i32* %5, align 4
  %36 = sext i32 %35 to i64
  %37 = getelementptr inbounds [100000 x %struct.student], [100000 x %struct.student]* %2, i64 0, i64 %36
  %38 = getelementptr inbounds %struct.student, %struct.student* %37, i32 0, i32 2
  %39 = load i32, i32* %38, align 4
  %40 = add nsw i32 %34, %39
  %41 = load i32, i32* %5, align 4
  %42 = sext i32 %41 to i64
  %43 = getelementptr inbounds [100000 x i32], [100000 x i32]* %8, i64 0, i64 %42
  store i32 %40, i32* %43, align 4
  br label %44

44:                                               ; preds = %16
  %45 = load i32, i32* %5, align 4
  %46 = add nsw i32 %45, 1
  store i32 %46, i32* %5, align 4
  br label %12

47:                                               ; preds = %12
  store i32 0, i32* %5, align 4
  br label %48

48:                                               ; preds = %93, %47
  %49 = load i32, i32* %5, align 4
  %50 = icmp slt i32 %49, 3
  br i1 %50, label %51, label %96

51:                                               ; preds = %48
  store i32 0, i32* %7, align 4
  br label %52

52:                                               ; preds = %89, %51
  %53 = load i32, i32* %7, align 4
  %54 = load i32, i32* %4, align 4
  %55 = sub nsw i32 %54, 1
  %56 = load i32, i32* %5, align 4
  %57 = sub nsw i32 %55, %56
  %58 = icmp slt i32 %53, %57
  br i1 %58, label %59, label %92

59:                                               ; preds = %52
  %60 = load i32, i32* %7, align 4
  %61 = sext i32 %60 to i64
  %62 = getelementptr inbounds [100000 x i32], [100000 x i32]* %8, i64 0, i64 %61
  %63 = load i32, i32* %62, align 4
  %64 = load i32, i32* %7, align 4
  %65 = add nsw i32 %64, 1
  %66 = sext i32 %65 to i64
  %67 = getelementptr inbounds [100000 x i32], [100000 x i32]* %8, i64 0, i64 %66
  %68 = load i32, i32* %67, align 4
  %69 = icmp sgt i32 %63, %68
  br i1 %69, label %70, label %88

70:                                               ; preds = %59
  %71 = load i32, i32* %7, align 4
  %72 = sext i32 %71 to i64
  %73 = getelementptr inbounds [100000 x i32], [100000 x i32]* %8, i64 0, i64 %72
  %74 = load i32, i32* %73, align 4
  store i32 %74, i32* %6, align 4
  %75 = load i32, i32* %7, align 4
  %76 = add nsw i32 %75, 1
  %77 = sext i32 %76 to i64
  %78 = getelementptr inbounds [100000 x i32], [100000 x i32]* %8, i64 0, i64 %77
  %79 = load i32, i32* %78, align 4
  %80 = load i32, i32* %7, align 4
  %81 = sext i32 %80 to i64
  %82 = getelementptr inbounds [100000 x i32], [100000 x i32]* %8, i64 0, i64 %81
  store i32 %79, i32* %82, align 4
  %83 = load i32, i32* %6, align 4
  %84 = load i32, i32* %7, align 4
  %85 = add nsw i32 %84, 1
  %86 = sext i32 %85 to i64
  %87 = getelementptr inbounds [100000 x i32], [100000 x i32]* %8, i64 0, i64 %86
  store i32 %83, i32* %87, align 4
  br label %88

88:                                               ; preds = %70, %59
  br label %89

89:                                               ; preds = %88
  %90 = load i32, i32* %7, align 4
  %91 = add nsw i32 %90, 1
  store i32 %91, i32* %7, align 4
  br label %52

92:                                               ; preds = %52
  br label %93

93:                                               ; preds = %92
  %94 = load i32, i32* %5, align 4
  %95 = add nsw i32 %94, 1
  store i32 %95, i32* %5, align 4
  br label %48

96:                                               ; preds = %48
  %97 = load i32, i32* %4, align 4
  %98 = sub nsw i32 %97, 1
  store i32 %98, i32* %5, align 4
  br label %99

99:                                               ; preds = %183, %96
  %100 = load i32, i32* %5, align 4
  %101 = load i32, i32* %4, align 4
  %102 = sub nsw i32 %101, 4
  %103 = icmp sgt i32 %100, %102
  br i1 %103, label %104, label %186

104:                                              ; preds = %99
  store i32 0, i32* %7, align 4
  br label %105

105:                                              ; preds = %179, %104
  %106 = load i32, i32* %7, align 4
  %107 = load i32, i32* %4, align 4
  %108 = icmp slt i32 %106, %107
  br i1 %108, label %109, label %182

109:                                              ; preds = %105
  %110 = load i32, i32* %5, align 4
  %111 = sext i32 %110 to i64
  %112 = getelementptr inbounds [100000 x i32], [100000 x i32]* %8, i64 0, i64 %111
  %113 = load i32, i32* %112, align 4
  %114 = load i32, i32* %7, align 4
  %115 = sext i32 %114 to i64
  %116 = getelementptr inbounds [100000 x %struct.student], [100000 x %struct.student]* %2, i64 0, i64 %115
  %117 = getelementptr inbounds %struct.student, %struct.student* %116, i32 0, i32 1
  %118 = load i32, i32* %117, align 4
  %119 = load i32, i32* %7, align 4
  %120 = sext i32 %119 to i64
  %121 = getelementptr inbounds [100000 x %struct.student], [100000 x %struct.student]* %2, i64 0, i64 %120
  %122 = getelementptr inbounds %struct.student, %struct.student* %121, i32 0, i32 2
  %123 = load i32, i32* %122, align 4
  %124 = add nsw i32 %118, %123
  %125 = icmp eq i32 %113, %124
  br i1 %125, label %126, label %178

126:                                              ; preds = %109
  %127 = load i32, i32* %7, align 4
  %128 = sext i32 %127 to i64
  %129 = getelementptr inbounds [100000 x %struct.student], [100000 x %struct.student]* %2, i64 0, i64 %128
  %130 = getelementptr inbounds %struct.student, %struct.student* %129, i32 0, i32 0
  %131 = load i32, i32* %130, align 4
  %132 = getelementptr inbounds [2 x %struct.student], [2 x %struct.student]* %3, i64 0, i64 0
  %133 = getelementptr inbounds %struct.student, %struct.student* %132, i32 0, i32 0
  %134 = load i32, i32* %133, align 16
  %135 = icmp ne i32 %131, %134
  br i1 %135, label %136, label %178

136:                                              ; preds = %126
  %137 = load i32, i32* %7, align 4
  %138 = sext i32 %137 to i64
  %139 = getelementptr inbounds [100000 x %struct.student], [100000 x %struct.student]* %2, i64 0, i64 %138
  %140 = getelementptr inbounds %struct.student, %struct.student* %139, i32 0, i32 0
  %141 = load i32, i32* %140, align 4
  %142 = getelementptr inbounds [2 x %struct.student], [2 x %struct.student]* %3, i64 0, i64 1
  %143 = getelementptr inbounds %struct.student, %struct.student* %142, i32 0, i32 0
  %144 = load i32, i32* %143, align 4
  %145 = icmp ne i32 %141, %144
  br i1 %145, label %146, label %178

146:                                              ; preds = %136
  %147 = load i32, i32* %7, align 4
  %148 = sext i32 %147 to i64
  %149 = getelementptr inbounds [100000 x %struct.student], [100000 x %struct.student]* %2, i64 0, i64 %148
  %150 = getelementptr inbounds %struct.student, %struct.student* %149, i32 0, i32 0
  %151 = load i32, i32* %150, align 4
  %152 = load i32, i32* %7, align 4
  %153 = sext i32 %152 to i64
  %154 = getelementptr inbounds [100000 x %struct.student], [100000 x %struct.student]* %2, i64 0, i64 %153
  %155 = getelementptr inbounds %struct.student, %struct.student* %154, i32 0, i32 1
  %156 = load i32, i32* %155, align 4
  %157 = load i32, i32* %7, align 4
  %158 = sext i32 %157 to i64
  %159 = getelementptr inbounds [100000 x %struct.student], [100000 x %struct.student]* %2, i64 0, i64 %158
  %160 = getelementptr inbounds %struct.student, %struct.student* %159, i32 0, i32 2
  %161 = load i32, i32* %160, align 4
  %162 = add nsw i32 %156, %161
  %163 = call i32 (i8*, ...) @printf(i8* getelementptr inbounds ([7 x i8], [7 x i8]* @.str.2, i64 0, i64 0), i32 %151, i32 %162)
  %164 = load i32, i32* %9, align 4
  %165 = sext i32 %164 to i64
  %166 = getelementptr inbounds [2 x %struct.student], [2 x %struct.student]* %3, i64 0, i64 %165
  %167 = load i32, i32* %7, align 4
  %168 = sext i32 %167 to i64
  %169 = getelementptr inbounds [100000 x %struct.student], [100000 x %struct.student]* %2, i64 0, i64 %168
  %170 = bitcast %struct.student* %166 to i8*
  %171 = bitcast %struct.student* %169 to i8*
  call void @llvm.memcpy.p0i8.p0i8.i64(i8* align 4 %170, i8* align 4 %171, i64 12, i1 false)
  %172 = load i32, i32* %9, align 4
  %173 = add nsw i32 %172, 1
  store i32 %173, i32* %9, align 4
  %174 = load i32, i32* %9, align 4
  %175 = icmp eq i32 %174, 3
  br i1 %175, label %176, label %177

176:                                              ; preds = %146
  br label %187

177:                                              ; preds = %146
  br label %178

178:                                              ; preds = %177, %136, %126, %109
  br label %179

179:                                              ; preds = %178
  %180 = load i32, i32* %7, align 4
  %181 = add nsw i32 %180, 1
  store i32 %181, i32* %7, align 4
  br label %105

182:                                              ; preds = %105
  br label %183

183:                                              ; preds = %182
  %184 = load i32, i32* %5, align 4
  %185 = add nsw i32 %184, -1
  store i32 %185, i32* %5, align 4
  br label %99

186:                                              ; preds = %99
  br label %187

187:                                              ; preds = %186, %176
  ret i32 0
}